target datalayout = "e-m:e-p270:32:32-p271:32:32-p272:64:64-i64:64-i128:128-f80:128-n8:16:32:64-S128"
target triple = "x86_64-pc-linux-gnu"

%"class.pxrInternal_v0_24__pxrReserved__::TfToken" = type { %"class.pxrInternal_v0_24__pxrReserved__::TfPointerAndBits" }
%"class.pxrInternal_v0_24__pxrReserved__::TfPointerAndBits" = type { ptr }
%"class.pxrInternal_v0_24__pxrReserved__::HdCoordSys" = type { %"class.pxrInternal_v0_24__pxrReserved__::HdSprim", %"class.pxrInternal_v0_24__pxrReserved__::TfToken" }
%"class.pxrInternal_v0_24__pxrReserved__::HdSprim" = type { ptr, %"class.pxrInternal_v0_24__pxrReserved__::SdfPath" }
%"class.pxrInternal_v0_24__pxrReserved__::SdfPath" = type { %"struct.pxrInternal_v0_24__pxrReserved__::Sdf_PathNodeHandleImpl", %"struct.pxrInternal_v0_24__pxrReserved__::Sdf_PathNodeHandleImpl.0" }
%"struct.pxrInternal_v0_24__pxrReserved__::Sdf_PathNodeHandleImpl" = type { %"struct.pxrInternal_v0_24__pxrReserved__::Sdf_Pool<pxrInternal_v0_24__pxrReserved__::Sdf_PathPrimTag, 24, 8>::Handle" }
%"struct.pxrInternal_v0_24__pxrReserved__::Sdf_Pool<pxrInternal_v0_24__pxrReserved__::Sdf_PathPrimTag, 24, 8>::Handle" = type { i32 }
%"struct.pxrInternal_v0_24__pxrReserved__::Sdf_PathNodeHandleImpl.0" = type { %"struct.pxrInternal_v0_24__pxrReserved__::Sdf_Pool<pxrInternal_v0_24__pxrReserved__::Sdf_PathPropTag, 24, 8>::Handle" }
%"struct.pxrInternal_v0_24__pxrReserved__::Sdf_Pool<pxrInternal_v0_24__pxrReserved__::Sdf_PathPropTag, 24, 8>::Handle" = type { i32 }

; Function Attrs: mustprogress uwtable
define void @_ZN32pxrInternal_v0_24__pxrReserved__10HdCoordSysC2ERKNS_7SdfPathE(ptr noundef nonnull align 8 dereferenceable(24) %0, ptr noundef nonnull align 4 dereferenceable(8) %1) unnamed_addr #0 align 2 personality ptr @__gxx_personality_v0 {
  %3 = alloca ptr, align 8
  %4 = alloca ptr, align 8
  %5 = alloca ptr, align 8
  %6 = alloca i32, align 4
  store ptr %0, ptr %3, align 8
  store ptr %1, ptr %4, align 8
  %7 = load ptr, ptr %3, align 8
  %8 = load ptr, ptr %4, align 8
  call void @_ZN32pxrInternal_v0_24__pxrReserved__7HdSprimC2ERKNS_7SdfPathE(ptr noundef nonnull align 8 dereferenceable(16) %7, ptr noundef nonnull align 4 dereferenceable(8) %8)
  store ptr getelementptr inbounds inrange(-16, 40) ({ [7 x ptr] }, ptr @_ZTVN32pxrInternal_v0_24__pxrReserved__10HdCoordSysE, i32 0, i32 0, i32 2), ptr %7, align 8
  %9 = getelementptr inbounds nuw %"class.pxrInternal_v0_24__pxrReserved__::HdCoordSys", ptr %7, i32 0, i32 1
  %10 = load ptr, ptr %4, align 8
  invoke void @_ZN32pxrInternal_v0_24__pxrReserved__L19_GetNameFromSdfPathERKNS_7SdfPathE(ptr dead_on_unwind writable sret(%"class.pxrInternal_v0_24__pxrReserved__::TfToken") align 8 %9, ptr noundef nonnull align 4 dereferenceable(8) %10)
          to label %11 unwind label %12

11:                                               ; preds = %2
  ret void

12:                                               ; preds = %2
  %13 = landingpad { ptr, i32 }
          cleanup
  %14 = extractvalue { ptr, i32 } %13, 0
  store ptr %14, ptr %5, align 8
  %15 = extractvalue { ptr, i32 } %13, 1
  store i32 %15, ptr %6, align 4
  call void @_ZN32pxrInternal_v0_24__pxrReserved__7HdSprimD2Ev(ptr noundef nonnull align 8 dereferenceable(16) %7) #4
  br label %16

16:                                               ; preds = %12
  %17 = load ptr, ptr %5, align 8
  %18 = load i32, ptr %6, align 4
  %19 = insertvalue { ptr, i32 } poison, ptr %17, 0
  %20 = insertvalue { ptr, i32 } %19, i32 %18, 1
  resume { ptr, i32 } %20
}