; Function Attrs: mustprogress uwtable
define void @_ZN32pxrInternal_v0_24__pxrReserved__10HdCoordSysC2ERKNS_7SdfPathE(ptr noundef nonnull align 8 dereferenceable(24) %0, ptr noundef nonnull align 4 dereferenceable(8) %1) unnamed_addr #0 align 2 personality ptr @__gxx_personality_v0 {
  tail call void @_ZN32pxrInternal_v0_24__pxrReserved__7HdSprimC2ERKNS_7SdfPathE(ptr noundef nonnull align 8 dereferenceable(16) %0, ptr noundef nonnull align 4 dereferenceable(8) %1)
  store ptr getelementptr inbounds inrange(-16, 40) (i8, ptr @_ZTVN32pxrInternal_v0_24__pxrReserved__10HdCoordSysE, i64 16), ptr %0, align 8
  %3 = getelementptr inbounds nuw i8, ptr %0, i64 16
  invoke fastcc void @_ZN32pxrInternal_v0_24__pxrReserved__L19_GetNameFromSdfPathERKNS_7SdfPathE(ptr dead_on_unwind noalias nonnull writable align 8 %3, ptr noundef nonnull align 4 dereferenceable(8) %1)
          to label %4 unwind label %5

4:                                                ; preds = %2
  ret void

5:                                                ; preds = %2
  %6 = landingpad { ptr, i32 }
          cleanup
  tail call void @_ZN32pxrInternal_v0_24__pxrReserved__7HdSprimD2Ev(ptr noundef nonnull align 8 dereferenceable(16) %0) #14
  resume { ptr, i32 } %6
}